; Function Attrs: mustprogress nofree norecurse nosync nounwind willreturn memory(argmem: readwrite) uwtable
define hidden noundef zeroext i1 @_ZN2cv10PngDecoder8nextPageEv(ptr noundef nonnull align 8 captures(none) dereferenceable(3976) %0) unnamed_addr #7 align 2 {
  %2 = getelementptr inbounds nuw i8, ptr %0, i64 440
  %3 = load i32, ptr %2, align 8, !tbaa !90
  %4 = add nsw i32 %3, 1
  store i32 %4, ptr %2, align 8, !tbaa !90
  %5 = getelementptr inbounds nuw i8, ptr %0, i64 272
  %6 = load i64, ptr %5, align 8, !tbaa !123
  %7 = trunc i64 %6 to i32
  %8 = icmp slt i32 %4, %7
  ret i1 %8
}